; Function Attrs: mustprogress nofree norecurse nosync nounwind willreturn memory(argmem: readwrite) uwtable
define dso_local void @_ZN4node4quic7Session20SendPendingDataScopeC2EPS1_(ptr nocapture noundef nonnull writeonly align 8 dereferenceable(8) %this, ptr noundef %session) unnamed_addr #3 align 2 {
entry:
  store ptr %session, ptr %this, align 8
  %send_scope_depth_ = getelementptr inbounds i8, ptr %session, i64 2488
  %0 = load i64, ptr %send_scope_depth_, align 8
  %inc = add i64 %0, 1
  store i64 %inc, ptr %send_scope_depth_, align 8
  ret void
}